; Function Attrs: mustprogress uwtable
define dso_local void @_ZN21cmCursesOptionsWidgetC2Eiiii(ptr noundef nonnull align 8 dereferenceable(96) %0, i32 noundef %1, i32 noundef %2, i32 noundef %3, i32 noundef %4) unnamed_addr #0 align 2 personality ptr @__gxx_personality_v0 {
  tail call void @_ZN14cmCursesWidgetC2Eiiii(ptr noundef nonnull align 8 dereferenceable(60) %0, i32 noundef %1, i32 noundef %2, i32 noundef %3, i32 noundef %4)
  store ptr getelementptr inbounds ({ [9 x ptr] }, ptr @_ZTV21cmCursesOptionsWidget, i64 0, i32 0, i64 2), ptr %0, align 8
  %6 = getelementptr inbounds i8, ptr %0, i64 64
  tail call void @llvm.memset.p0.i64(ptr noundef nonnull align 8 dereferenceable(24) %6, i8 0, i64 24, i1 false)
  %7 = getelementptr inbounds i8, ptr %0, i64 8
  store i32 0, ptr %7, align 8
  %8 = invoke noundef zeroext i1 @_ZN13cmCursesColor9HasColorsEv()
          to label %9 unwind label %14

9:                                                ; preds = %5
  %10 = getelementptr inbounds i8, ptr %0, i64 48
  %11 = load ptr, ptr %10, align 8
  br i1 %8, label %12, label %16

12:                                               ; preds = %9
  %13 = invoke i32 @set_field_fore(ptr noundef %11, i32 noundef 1280)
          to label %.invoke unwind label %14

14:                                               ; preds = %.invoke, %21, %16, %12, %5
  %15 = landingpad { ptr, i32 }
          cleanup
  tail call void @_ZNSt6vectorINSt7__cxx1112basic_stringIcSt11char_traitsIcESaIcEEESaIS5_EED2Ev(ptr noundef nonnull align 8 dereferenceable(24) %6) #11
  tail call void @_ZN14cmCursesWidgetD2Ev(ptr noundef nonnull align 8 dereferenceable(60) %0) #11
  resume { ptr, i32 } %15

16:                                               ; preds = %9
  %17 = invoke i32 @set_field_fore(ptr noundef %11, i32 noundef 0)
          to label %.invoke unwind label %14

.invoke:                                          ; preds = %16, %12
  %18 = phi i32 [ 1280, %12 ], [ 65536, %16 ]
  %19 = load ptr, ptr %10, align 8
  %20 = invoke i32 @set_field_back(ptr noundef %19, i32 noundef %18)
          to label %21 unwind label %14

21:                                               ; preds = %.invoke
  %22 = getelementptr inbounds i8, ptr %0, i64 48
  %23 = load ptr, ptr %22, align 8
  %24 = invoke i32 @field_opts_off(ptr noundef %23, i32 noundef 512)
          to label %25 unwind label %14

25:                                               ; preds = %21
  ret void
}